target datalayout = "e-m:e-p270:32:32-p271:32:32-p272:64:64-i64:64-i128:128-f80:128-n8:16:32:64-S128"
target triple = "x86_64-pc-linux-gnu"

%struct._zend_phpdbg_globals = type { [11 x %struct._zend_array], %struct._zend_array, %struct._zend_array, ptr, ptr, %struct.phpdbg_frame_t, i32, ptr, %struct.phpdbg_lexer_data, ptr, %struct.sigaction, i32, i64, %struct.phpdbg_btree, %struct.phpdbg_btree, %struct._zend_array, %struct._zend_array, %struct._zend_array, %struct._zend_array, ptr, ptr, i8, ptr, ptr, ptr, i64, ptr, %struct._zval_struct, i32, i32, i8, i8, ptr, ptr, ptr, %struct._zend_array, ptr, ptr, ptr, [3 x %struct.anon.8], ptr, %struct.anon.9, i64, [2 x ptr], [3 x ptr], ptr, i8, ptr, ptr, [500 x i8], i32, %struct.phpdbg_signal_safe_mem, ptr, i64, ptr, i64 }
%struct.phpdbg_frame_t = type { i32, ptr, ptr }
%struct.phpdbg_lexer_data = type { i32, ptr, ptr, ptr, ptr, i32 }
%struct.sigaction = type { %union.anon.2, %struct.__sigset_t, i32, ptr }
%union.anon.2 = type { ptr }
%struct.__sigset_t = type { [16 x i64] }
%struct.phpdbg_btree = type { i64, i64, i8, ptr }
%struct._zval_struct = type { %union._zend_value, %union.anon.4, %union.anon.7 }
%union._zend_value = type { i64 }
%union.anon.4 = type { i32 }
%union.anon.7 = type { i32 }
%struct._zend_array = type { %struct._zend_refcounted_h, %union.anon.0, i32, %union.anon.1, i32, i32, i32, i32, i64, ptr }
%struct._zend_refcounted_h = type { i32, %union.anon }
%union.anon = type { i32 }
%union.anon.0 = type { i32 }
%union.anon.1 = type { ptr }
%struct.anon.8 = type { i32 }
%struct.anon.9 = type { i8, i32, i32, ptr, i32 }
%struct.phpdbg_signal_safe_mem = type { ptr, i8, ptr, ptr }
%struct._phpdbg_param = type { i32, i64, i64, %struct.anon.10, %struct.anon.11, ptr, i64, ptr, ptr }
%struct.anon.10 = type { ptr, i64 }
%struct.anon.11 = type { ptr, ptr }

@phpdbg_globals = external global %struct._zend_phpdbg_globals, align 8
@.str.125 = private unnamed_addr constant [27 x i8] c"Execution context not set!\00", align 1
@.str.126 = private unnamed_addr constant [44 x i8] c"Unsupported parameter type (%s) for command\00", align 1

; Function Attrs: nounwind uwtable
define hidden i32 @phpdbg_do_break(ptr noundef %0) #0 {
  %2 = alloca ptr, align 8
  store ptr %0, ptr %2, align 8
  %3 = load ptr, ptr %2, align 8
  %4 = icmp ne ptr %3, null
  br i1 %4, label %18, label %5

5:                                                ; preds = %1
  %6 = load ptr, ptr getelementptr inbounds (%struct._zend_phpdbg_globals, ptr @phpdbg_globals, i32 0, i32 24), align 8
  %7 = icmp ne ptr %6, null
  br i1 %7, label %8, label %14

8:                                                ; preds = %5
  %9 = call ptr @zend_get_executed_filename()
  %10 = call ptr @zend_get_executed_filename()
  %11 = call i64 @strlen(ptr noundef %10) #16
  %12 = call i32 @zend_get_executed_lineno()
  %13 = zext i32 %12 to i64
  call void @phpdbg_set_breakpoint_file(ptr noundef %9, i64 noundef %11, i64 noundef %13)
  br label %17

14:                                               ; preds = %5
  %15 = load i32, ptr getelementptr inbounds (%struct._zend_phpdbg_globals, ptr @phpdbg_globals, i32 0, i32 39, i64 1), align 4
  %16 = call i32 (i32, i32, ptr, ...) @phpdbg_print(i32 noundef 1, i32 noundef %15, ptr noundef @.str.125)
  br label %17

17:                                               ; preds = %14, %8
  br label %113

18:                                               ; preds = %1
  %19 = load ptr, ptr %2, align 8
  %20 = getelementptr inbounds %struct._phpdbg_param, ptr %19, i32 0, i32 0
  %21 = load i32, ptr %20, align 8
  switch i32 %21, label %107 [
    i32 1, label %22
    i32 6, label %26
    i32 4, label %40
    i32 8, label %49
    i32 7, label %61
    i32 2, label %68
    i32 3, label %77
    i32 12, label %86
    i32 5, label %93
    i32 13, label %100
  ]

22:                                               ; preds = %18
  %23 = load ptr, ptr %2, align 8
  %24 = getelementptr inbounds %struct._phpdbg_param, ptr %23, i32 0, i32 2
  %25 = load i64, ptr %24, align 8
  call void @phpdbg_set_breakpoint_opline(i64 noundef %25)
  br label %112

26:                                               ; preds = %18
  %27 = load ptr, ptr getelementptr inbounds (%struct._zend_phpdbg_globals, ptr @phpdbg_globals, i32 0, i32 24), align 8
  %28 = icmp ne ptr %27, null
  br i1 %28, label %29, label %36

29:                                               ; preds = %26
  %30 = call ptr @phpdbg_current_file()
  %31 = call ptr @phpdbg_current_file()
  %32 = call i64 @strlen(ptr noundef %31) #16
  %33 = load ptr, ptr %2, align 8
  %34 = getelementptr inbounds %struct._phpdbg_param, ptr %33, i32 0, i32 1
  %35 = load i64, ptr %34, align 8
  call void @phpdbg_set_breakpoint_file(ptr noundef %30, i64 noundef %32, i64 noundef %35)
  br label %39

36:                                               ; preds = %26
  %37 = load i32, ptr getelementptr inbounds (%struct._zend_phpdbg_globals, ptr @phpdbg_globals, i32 0, i32 39, i64 1), align 4
  %38 = call i32 (i32, i32, ptr, ...) @phpdbg_print(i32 noundef 1, i32 noundef %37, ptr noundef @.str.125)
  br label %39

39:                                               ; preds = %36, %29
  br label %112

40:                                               ; preds = %18
  %41 = load ptr, ptr %2, align 8
  %42 = getelementptr inbounds %struct._phpdbg_param, ptr %41, i32 0, i32 4
  %43 = getelementptr inbounds %struct.anon.11, ptr %42, i32 0, i32 0
  %44 = load ptr, ptr %43, align 8
  %45 = load ptr, ptr %2, align 8
  %46 = getelementptr inbounds %struct._phpdbg_param, ptr %45, i32 0, i32 4
  %47 = getelementptr inbounds %struct.anon.11, ptr %46, i32 0, i32 1
  %48 = load ptr, ptr %47, align 8
  call void @phpdbg_set_breakpoint_method(ptr noundef %44, ptr noundef %48)
  br label %112

49:                                               ; preds = %18
  %50 = load ptr, ptr %2, align 8
  %51 = getelementptr inbounds %struct._phpdbg_param, ptr %50, i32 0, i32 4
  %52 = getelementptr inbounds %struct.anon.11, ptr %51, i32 0, i32 0
  %53 = load ptr, ptr %52, align 8
  %54 = load ptr, ptr %2, align 8
  %55 = getelementptr inbounds %struct._phpdbg_param, ptr %54, i32 0, i32 4
  %56 = getelementptr inbounds %struct.anon.11, ptr %55, i32 0, i32 1
  %57 = load ptr, ptr %56, align 8
  %58 = load ptr, ptr %2, align 8
  %59 = getelementptr inbounds %struct._phpdbg_param, ptr %58, i32 0, i32 1
  %60 = load i64, ptr %59, align 8
  call void @phpdbg_set_breakpoint_method_opline(ptr noundef %53, ptr noundef %57, i64 noundef %60)
  br label %112

61:                                               ; preds = %18
  %62 = load ptr, ptr %2, align 8
  %63 = getelementptr inbounds %struct._phpdbg_param, ptr %62, i32 0, i32 5
  %64 = load ptr, ptr %63, align 8
  %65 = load ptr, ptr %2, align 8
  %66 = getelementptr inbounds %struct._phpdbg_param, ptr %65, i32 0, i32 1
  %67 = load i64, ptr %66, align 8
  call void @phpdbg_set_breakpoint_function_opline(ptr noundef %64, i64 noundef %67)
  br label %112

68:                                               ; preds = %18
  %69 = load ptr, ptr %2, align 8
  %70 = getelementptr inbounds %struct._phpdbg_param, ptr %69, i32 0, i32 3
  %71 = getelementptr inbounds %struct.anon.10, ptr %70, i32 0, i32 0
  %72 = load ptr, ptr %71, align 8
  %73 = load ptr, ptr %2, align 8
  %74 = getelementptr inbounds %struct._phpdbg_param, ptr %73, i32 0, i32 3
  %75 = getelementptr inbounds %struct.anon.10, ptr %74, i32 0, i32 1
  %76 = load i64, ptr %75, align 8
  call void @phpdbg_set_breakpoint_file(ptr noundef %72, i64 noundef 0, i64 noundef %76)
  br label %112

77:                                               ; preds = %18
  %78 = load ptr, ptr %2, align 8
  %79 = getelementptr inbounds %struct._phpdbg_param, ptr %78, i32 0, i32 3
  %80 = getelementptr inbounds %struct.anon.10, ptr %79, i32 0, i32 0
  %81 = load ptr, ptr %80, align 8
  %82 = load ptr, ptr %2, align 8
  %83 = getelementptr inbounds %struct._phpdbg_param, ptr %82, i32 0, i32 3
  %84 = getelementptr inbounds %struct.anon.10, ptr %83, i32 0, i32 1
  %85 = load i64, ptr %84, align 8
  call void @phpdbg_set_breakpoint_file_opline(ptr noundef %81, i64 noundef %85)
  br label %112

86:                                               ; preds = %18
  %87 = load ptr, ptr %2, align 8
  %88 = getelementptr inbounds %struct._phpdbg_param, ptr %87, i32 0, i32 5
  %89 = load ptr, ptr %88, align 8
  %90 = load ptr, ptr %2, align 8
  %91 = getelementptr inbounds %struct._phpdbg_param, ptr %90, i32 0, i32 6
  %92 = load i64, ptr %91, align 8
  call void @phpdbg_set_breakpoint_expression(ptr noundef %89, i64 noundef %92)
  br label %112

93:                                               ; preds = %18
  %94 = load ptr, ptr %2, align 8
  %95 = getelementptr inbounds %struct._phpdbg_param, ptr %94, i32 0, i32 5
  %96 = load ptr, ptr %95, align 8
  %97 = load ptr, ptr %2, align 8
  %98 = getelementptr inbounds %struct._phpdbg_param, ptr %97, i32 0, i32 6
  %99 = load i64, ptr %98, align 8
  call void @phpdbg_set_breakpoint_symbol(ptr noundef %96, i64 noundef %99)
  br label %112

100:                                              ; preds = %18
  %101 = load ptr, ptr %2, align 8
  %102 = getelementptr inbounds %struct._phpdbg_param, ptr %101, i32 0, i32 5
  %103 = load ptr, ptr %102, align 8
  %104 = load ptr, ptr %2, align 8
  %105 = getelementptr inbounds %struct._phpdbg_param, ptr %104, i32 0, i32 6
  %106 = load i64, ptr %105, align 8
  call void @phpdbg_set_breakpoint_opcode(ptr noundef %103, i64 noundef %106)
  br label %112

107:                                              ; preds = %18
  %108 = load i32, ptr getelementptr inbounds (%struct._zend_phpdbg_globals, ptr @phpdbg_globals, i32 0, i32 39, i64 1), align 4
  %109 = load ptr, ptr %2, align 8
  %110 = call ptr @phpdbg_get_param_type(ptr noundef %109)
  %111 = call i32 (i32, i32, ptr, ...) @phpdbg_print(i32 noundef 1, i32 noundef %108, ptr noundef @.str.126, ptr noundef %110)
  br label %112

112:                                              ; preds = %107, %100, %93, %86, %77, %68, %61, %49, %40, %39, %22
  br label %113

113:                                              ; preds = %112, %17
  ret i32 0
}