; Function Attrs: nounwind uwtable
define hidden noundef i32 @phpdbg_do_break(ptr noundef %0) #0 {
  %.not = icmp eq ptr %0, null
  br i1 %.not, label %2, label %13

2:                                                ; preds = %1
  %3 = load ptr, ptr getelementptr inbounds (%struct._zend_phpdbg_globals, ptr @phpdbg_globals, i64 0, i32 24), align 8
  %.not22 = icmp eq ptr %3, null
  br i1 %.not22, label %10, label %4

4:                                                ; preds = %2
  %5 = tail call ptr @zend_get_executed_filename() #24
  %6 = tail call ptr @zend_get_executed_filename() #24
  %7 = tail call i64 @strlen(ptr noundef nonnull dereferenceable(1) %6) #25
  %8 = tail call i32 @zend_get_executed_lineno() #24
  %9 = zext i32 %8 to i64
  tail call void @phpdbg_set_breakpoint_file(ptr noundef %5, i64 noundef %7, i64 noundef %9) #24
  br label %75

10:                                               ; preds = %2
  %11 = load i32, ptr getelementptr inbounds (%struct._zend_phpdbg_globals, ptr @phpdbg_globals, i64 0, i32 39, i64 1), align 4
  %12 = tail call i32 (i32, i32, ptr, ...) @phpdbg_print(i32 noundef 1, i32 noundef %11, ptr noundef nonnull @.str.125) #24
  br label %75

13:                                               ; preds = %1
  %14 = load i32, ptr %0, align 8
  switch i32 %14, label %71 [
    i32 1, label %15
    i32 6, label %18
    i32 4, label %29
    i32 8, label %34
    i32 7, label %41
    i32 2, label %46
    i32 3, label %51
    i32 12, label %56
    i32 5, label %61
    i32 13, label %66
  ]

15:                                               ; preds = %13
  %16 = getelementptr inbounds i8, ptr %0, i64 16
  %17 = load i64, ptr %16, align 8
  tail call void @phpdbg_set_breakpoint_opline(i64 noundef %17) #24
  br label %75

18:                                               ; preds = %13
  %19 = load ptr, ptr getelementptr inbounds (%struct._zend_phpdbg_globals, ptr @phpdbg_globals, i64 0, i32 24), align 8
  %.not23 = icmp eq ptr %19, null
  br i1 %.not23, label %26, label %20

20:                                               ; preds = %18
  %21 = tail call ptr @phpdbg_current_file() #24
  %22 = tail call ptr @phpdbg_current_file() #24
  %23 = tail call i64 @strlen(ptr noundef nonnull dereferenceable(1) %22) #25
  %24 = getelementptr inbounds i8, ptr %0, i64 8
  %25 = load i64, ptr %24, align 8
  tail call void @phpdbg_set_breakpoint_file(ptr noundef %21, i64 noundef %23, i64 noundef %25) #24
  br label %75

26:                                               ; preds = %18
  %27 = load i32, ptr getelementptr inbounds (%struct._zend_phpdbg_globals, ptr @phpdbg_globals, i64 0, i32 39, i64 1), align 4
  %28 = tail call i32 (i32, i32, ptr, ...) @phpdbg_print(i32 noundef 1, i32 noundef %27, ptr noundef nonnull @.str.125) #24
  br label %75

29:                                               ; preds = %13
  %30 = getelementptr inbounds i8, ptr %0, i64 40
  %31 = load ptr, ptr %30, align 8
  %32 = getelementptr inbounds i8, ptr %0, i64 48
  %33 = load ptr, ptr %32, align 8
  tail call void @phpdbg_set_breakpoint_method(ptr noundef %31, ptr noundef %33) #24
  br label %75

34:                                               ; preds = %13
  %35 = getelementptr inbounds i8, ptr %0, i64 40
  %36 = load ptr, ptr %35, align 8
  %37 = getelementptr inbounds i8, ptr %0, i64 48
  %38 = load ptr, ptr %37, align 8
  %39 = getelementptr inbounds i8, ptr %0, i64 8
  %40 = load i64, ptr %39, align 8
  tail call void @phpdbg_set_breakpoint_method_opline(ptr noundef %36, ptr noundef %38, i64 noundef %40) #24
  br label %75

41:                                               ; preds = %13
  %42 = getelementptr inbounds i8, ptr %0, i64 56
  %43 = load ptr, ptr %42, align 8
  %44 = getelementptr inbounds i8, ptr %0, i64 8
  %45 = load i64, ptr %44, align 8
  tail call void @phpdbg_set_breakpoint_function_opline(ptr noundef %43, i64 noundef %45) #24
  br label %75

46:                                               ; preds = %13
  %47 = getelementptr inbounds i8, ptr %0, i64 24
  %48 = load ptr, ptr %47, align 8
  %49 = getelementptr inbounds i8, ptr %0, i64 32
  %50 = load i64, ptr %49, align 8
  tail call void @phpdbg_set_breakpoint_file(ptr noundef %48, i64 noundef 0, i64 noundef %50) #24
  br label %75

51:                                               ; preds = %13
  %52 = getelementptr inbounds i8, ptr %0, i64 24
  %53 = load ptr, ptr %52, align 8
  %54 = getelementptr inbounds i8, ptr %0, i64 32
  %55 = load i64, ptr %54, align 8
  tail call void @phpdbg_set_breakpoint_file_opline(ptr noundef %53, i64 noundef %55) #24
  br label %75

56:                                               ; preds = %13
  %57 = getelementptr inbounds i8, ptr %0, i64 56
  %58 = load ptr, ptr %57, align 8
  %59 = getelementptr inbounds i8, ptr %0, i64 64
  %60 = load i64, ptr %59, align 8
  tail call void @phpdbg_set_breakpoint_expression(ptr noundef %58, i64 noundef %60) #24
  br label %75

61:                                               ; preds = %13
  %62 = getelementptr inbounds i8, ptr %0, i64 56
  %63 = load ptr, ptr %62, align 8
  %64 = getelementptr inbounds i8, ptr %0, i64 64
  %65 = load i64, ptr %64, align 8
  tail call void @phpdbg_set_breakpoint_symbol(ptr noundef %63, i64 noundef %65) #24
  br label %75

66:                                               ; preds = %13
  %67 = getelementptr inbounds i8, ptr %0, i64 56
  %68 = load ptr, ptr %67, align 8
  %69 = getelementptr inbounds i8, ptr %0, i64 64
  %70 = load i64, ptr %69, align 8
  tail call void @phpdbg_set_breakpoint_opcode(ptr noundef %68, i64 noundef %70) #24
  br label %75

71:                                               ; preds = %13
  %72 = load i32, ptr getelementptr inbounds (%struct._zend_phpdbg_globals, ptr @phpdbg_globals, i64 0, i32 39, i64 1), align 4
  %73 = tail call ptr @phpdbg_get_param_type(ptr noundef nonnull %0) #24
  %74 = tail call i32 (i32, i32, ptr, ...) @phpdbg_print(i32 noundef 1, i32 noundef %72, ptr noundef nonnull @.str.126, ptr noundef %73) #24
  br label %75

75:                                               ; preds = %15, %29, %34, %41, %46, %51, %56, %61, %66, %71, %26, %20, %4, %10
  ret i32 0
}